target datalayout = "e-m:e-p270:32:32-p271:32:32-p272:64:64-i64:64-i128:128-f80:128-n8:16:32:64-S128"
target triple = "x86_64-pc-linux-gnu"

%"struct.Catch::SourceLineInfo" = type { ptr, i64 }
%"class.Catch::StringRef" = type { ptr, i64 }
%"class.Catch::AssertionHandler" = type { %"struct.Catch::AssertionInfo", %"struct.Catch::AssertionReaction", i8, ptr }
%"struct.Catch::AssertionInfo" = type <{ %"class.Catch::StringRef", %"struct.Catch::SourceLineInfo", %"class.Catch::StringRef", i32, [4 x i8] }>
%"struct.Catch::AssertionReaction" = type { i8, i8 }
%"struct.Catch::Decomposer" = type { i8 }
%"struct.Catch::ITransientExpression.base" = type <{ ptr, i8, i8 }>
%"class.Catch::ExprLhs.2" = type { ptr }
%"struct.vcpkg::StringView" = type { ptr, i64 }
%"class.Catch::BinaryExpr.11" = type { %"struct.Catch::ITransientExpression.base", ptr, %"class.Catch::StringRef", ptr }
%"struct.Catch::ITransientExpression" = type <{ ptr, i8, i8, [6 x i8] }>

@.str = private unnamed_addr constant [119 x i8] c"generated/home/dtcxzyw/WorkSpace/Projects/compilers/llvm-opt-benchmark/bench/vcpkg/vcpkg-tool/src/vcpkg-test/files.cpp\00", align 1
@.str.52 = private unnamed_addr constant [6 x i8] c"CHECK\00", align 1
@_ZTVN5Catch20ITransientExpressionE = available_externally unnamed_addr constant { [5 x ptr] } { [5 x ptr] [ptr null, ptr @_ZTIN5Catch20ITransientExpressionE, ptr @__cxa_pure_virtual, ptr @_ZN5Catch20ITransientExpressionD1Ev, ptr @_ZN5Catch20ITransientExpressionD0Ev] }, align 8
@.str.66 = private unnamed_addr constant [3 x i8] c"==\00", align 1
@.str.119 = private unnamed_addr constant [23 x i8] c"p.native() == expected\00", align 1

; Function Attrs: mustprogress nounwind uwtable
define linkonce_odr dso_local void @_ZN5Catch20ITransientExpressionC2Ebb(ptr noundef nonnull align 8 dereferenceable(10) %0, i1 noundef zeroext %1, i1 noundef zeroext %2) unnamed_addr #6 comdat align 2 {
  %4 = alloca ptr, align 8
  %5 = alloca i8, align 1
  %6 = alloca i8, align 1
  store ptr %0, ptr %4, align 8, !tbaa !73
  %7 = zext i1 %1 to i8
  store i8 %7, ptr %5, align 1, !tbaa !24
  %8 = zext i1 %2 to i8
  store i8 %8, ptr %6, align 1, !tbaa !24
  %9 = load ptr, ptr %4, align 8
  store ptr getelementptr inbounds inrange(-16, 24) ({ [5 x ptr] }, ptr @_ZTVN5Catch20ITransientExpressionE, i32 0, i32 0, i32 2), ptr %9, align 8, !tbaa !33
  %10 = getelementptr inbounds nuw %"struct.Catch::ITransientExpression", ptr %9, i32 0, i32 1
  %11 = load i8, ptr %5, align 1, !tbaa !24, !range !26, !noundef !27
  %12 = trunc i8 %11 to i1
  %13 = zext i1 %12 to i8
  store i8 %13, ptr %10, align 8, !tbaa !75
  %14 = getelementptr inbounds nuw %"struct.Catch::ITransientExpression", ptr %9, i32 0, i32 2
  %15 = load i8, ptr %6, align 1, !tbaa !24, !range !26, !noundef !27
  %16 = trunc i8 %15 to i1
  %17 = zext i1 %16 to i8
  store i8 %17, ptr %14, align 1, !tbaa !76
  ret void
}

; Function Attrs: mustprogress nounwind uwtable
define linkonce_odr dso_local void @_ZN5Catch10BinaryExprIRKNSt7__cxx1112basic_stringIcSt11char_traitsIcESaIcEEERKN5vcpkg10StringViewEEC2EbS8_NS_9StringRefESC_(ptr noundef nonnull align 8 dereferenceable(48) %0, i1 noundef zeroext %1, ptr noundef nonnull align 8 dereferenceable(32) %2, ptr %3, i64 %4, ptr noundef nonnull align 8 dereferenceable(16) %5) unnamed_addr #6 comdat align 2 {
  %7 = alloca %"class.Catch::StringRef", align 8
  %8 = alloca ptr, align 8
  %9 = alloca i8, align 1
  %10 = alloca ptr, align 8
  %11 = alloca ptr, align 8
  %12 = getelementptr inbounds nuw { ptr, i64 }, ptr %7, i32 0, i32 0
  store ptr %3, ptr %12, align 8
  %13 = getelementptr inbounds nuw { ptr, i64 }, ptr %7, i32 0, i32 1
  store i64 %4, ptr %13, align 8
  store ptr %0, ptr %8, align 8, !tbaa !163
  %14 = zext i1 %1 to i8
  store i8 %14, ptr %9, align 1, !tbaa !24
  store ptr %2, ptr %10, align 8, !tbaa !50
  store ptr %5, ptr %11, align 8, !tbaa !95
  %15 = load ptr, ptr %8, align 8
  %16 = load i8, ptr %9, align 1, !tbaa !24, !range !26, !noundef !27
  %17 = trunc i8 %16 to i1
  call void @_ZN5Catch20ITransientExpressionC2Ebb(ptr noundef nonnull align 8 dereferenceable(10) %15, i1 noundef zeroext true, i1 noundef zeroext %17)
  store ptr getelementptr inbounds inrange(-16, 24) ({ [5 x ptr] }, ptr @_ZTVN5Catch10BinaryExprIRKNSt7__cxx1112basic_stringIcSt11char_traitsIcESaIcEEERKN5vcpkg10StringViewEEE, i32 0, i32 0, i32 2), ptr %15, align 8, !tbaa !33
  %18 = getelementptr inbounds nuw %"class.Catch::BinaryExpr.11", ptr %15, i32 0, i32 1
  %19 = load ptr, ptr %10, align 8, !tbaa !50
  store ptr %19, ptr %18, align 8, !tbaa !50
  %20 = getelementptr inbounds nuw %"class.Catch::BinaryExpr.11", ptr %15, i32 0, i32 2
  call void @llvm.memcpy.p0.p0.i64(ptr align 8 %20, ptr align 8 %7, i64 16, i1 false), !tbaa.struct !21
  %21 = getelementptr inbounds nuw %"class.Catch::BinaryExpr.11", ptr %15, i32 0, i32 3
  %22 = load ptr, ptr %11, align 8, !tbaa !95
  store ptr %22, ptr %21, align 8, !tbaa !95
  ret void
}

; Function Attrs: mustprogress nounwind uwtable
define linkonce_odr dso_local noundef zeroext i1 @_ZN5Catch12compareEqualINSt7__cxx1112basic_stringIcSt11char_traitsIcESaIcEEEN5vcpkg10StringViewEEEbRKT_RKT0_(ptr noundef nonnull align 8 dereferenceable(32) %0, ptr noundef nonnull align 8 dereferenceable(16) %1) #6 comdat {
  %3 = alloca ptr, align 8
  %4 = alloca ptr, align 8
  %5 = alloca %"struct.vcpkg::StringView", align 8
  %6 = alloca %"struct.vcpkg::StringView", align 8
  store ptr %0, ptr %3, align 8, !tbaa !50
  store ptr %1, ptr %4, align 8, !tbaa !95
  %7 = load ptr, ptr %3, align 8, !tbaa !50
  call void @_ZN5vcpkg10StringViewC1ERKNSt7__cxx1112basic_stringIcSt11char_traitsIcESaIcEEE(ptr noundef nonnull align 8 dereferenceable(16) %5, ptr noundef nonnull align 8 dereferenceable(32) %7) #3
  %8 = load ptr, ptr %4, align 8, !tbaa !95
  call void @llvm.memcpy.p0.p0.i64(ptr align 8 %6, ptr align 8 %8, i64 16, i1 false), !tbaa.struct !21
  %9 = getelementptr inbounds nuw { ptr, i64 }, ptr %5, i32 0, i32 0
  %10 = load ptr, ptr %9, align 8
  %11 = getelementptr inbounds nuw { ptr, i64 }, ptr %5, i32 0, i32 1
  %12 = load i64, ptr %11, align 8
  %13 = getelementptr inbounds nuw { ptr, i64 }, ptr %6, i32 0, i32 0
  %14 = load ptr, ptr %13, align 8
  %15 = getelementptr inbounds nuw { ptr, i64 }, ptr %6, i32 0, i32 1
  %16 = load i64, ptr %15, align 8
  %17 = call noundef zeroext i1 @_ZN5vcpkgeqENS_10StringViewES0_(ptr %10, i64 %12, ptr %14, i64 %16) #3
  ret i1 %17
}

; Function Attrs: mustprogress nounwind uwtable
define linkonce_odr dso_local void @_ZN5Catch7ExprLhsIRKNSt7__cxx1112basic_stringIcSt11char_traitsIcESaIcEEEEC2ES8_(ptr noundef nonnull align 8 dereferenceable(8) %0, ptr noundef nonnull align 8 dereferenceable(32) %1) unnamed_addr #6 comdat align 2 {
  %3 = alloca ptr, align 8
  %4 = alloca ptr, align 8
  store ptr %0, ptr %3, align 8, !tbaa !62
  store ptr %1, ptr %4, align 8, !tbaa !50
  %5 = load ptr, ptr %3, align 8
  %6 = getelementptr inbounds nuw %"class.Catch::ExprLhs.2", ptr %5, i32 0, i32 0
  %7 = load ptr, ptr %4, align 8, !tbaa !50
  store ptr %7, ptr %6, align 8, !tbaa !50
  ret void
}

; Function Attrs: mustprogress nounwind uwtable
define linkonce_odr dso_local void @_ZN5Catch9StringRefC2EPKcm(ptr noundef nonnull align 8 dereferenceable(16) %0, ptr noundef %1, i64 noundef %2) unnamed_addr #6 comdat align 2 {
  %4 = alloca ptr, align 8
  %5 = alloca ptr, align 8
  %6 = alloca i64, align 8
  store ptr %0, ptr %4, align 8, !tbaa !16
  store ptr %1, ptr %5, align 8, !tbaa !9
  store i64 %2, ptr %6, align 8, !tbaa !11
  %7 = load ptr, ptr %4, align 8
  %8 = getelementptr inbounds nuw %"class.Catch::StringRef", ptr %7, i32 0, i32 0
  %9 = load ptr, ptr %5, align 8, !tbaa !9
  store ptr %9, ptr %8, align 8, !tbaa !18
  %10 = getelementptr inbounds nuw %"class.Catch::StringRef", ptr %7, i32 0, i32 1
  %11 = load i64, ptr %6, align 8, !tbaa !11
  store i64 %11, ptr %10, align 8, !tbaa !20
  ret void
}

; Function Attrs: mustprogress uwtable
define linkonce_odr dso_local void @_ZN5Catch7ExprLhsIRKNSt7__cxx1112basic_stringIcSt11char_traitsIcESaIcEEEEeqIN5vcpkg10StringViewEEEKNS_10BinaryExprIS8_RKT_EESG_(ptr dead_on_unwind noalias writable sret(%"class.Catch::BinaryExpr.11") align 8 %0, ptr noundef nonnull align 8 dereferenceable(8) %1, ptr noundef nonnull align 8 dereferenceable(16) %2) #4 comdat align 2 {
  %4 = alloca ptr, align 8
  %5 = alloca ptr, align 8
  %6 = alloca ptr, align 8
  %7 = alloca %"class.Catch::StringRef", align 8
  store ptr %0, ptr %4, align 8
  store ptr %1, ptr %5, align 8, !tbaa !62
  store ptr %2, ptr %6, align 8, !tbaa !95
  %8 = load ptr, ptr %5, align 8
  %9 = getelementptr inbounds nuw %"class.Catch::ExprLhs.2", ptr %8, i32 0, i32 0
  %10 = load ptr, ptr %9, align 8, !tbaa !64
  %11 = load ptr, ptr %6, align 8, !tbaa !95
  %12 = call noundef zeroext i1 @_ZN5Catch12compareEqualINSt7__cxx1112basic_stringIcSt11char_traitsIcESaIcEEEN5vcpkg10StringViewEEEbRKT_RKT0_(ptr noundef nonnull align 8 dereferenceable(32) %10, ptr noundef nonnull align 8 dereferenceable(16) %11)
  %13 = getelementptr inbounds nuw %"class.Catch::ExprLhs.2", ptr %8, i32 0, i32 0
  %14 = load ptr, ptr %13, align 8, !tbaa !64
  call void @_ZN5Catch9StringRefC1EPKc(ptr noundef nonnull align 8 dereferenceable(16) %7, ptr noundef @.str.66) #3
  %15 = load ptr, ptr %6, align 8, !tbaa !95
  %16 = getelementptr inbounds nuw { ptr, i64 }, ptr %7, i32 0, i32 0
  %17 = load ptr, ptr %16, align 8
  %18 = getelementptr inbounds nuw { ptr, i64 }, ptr %7, i32 0, i32 1
  %19 = load i64, ptr %18, align 8
  call void @_ZN5Catch10BinaryExprIRKNSt7__cxx1112basic_stringIcSt11char_traitsIcESaIcEEERKN5vcpkg10StringViewEEC2EbS8_NS_9StringRefESC_(ptr noundef nonnull align 8 dereferenceable(48) %0, i1 noundef zeroext %12, ptr noundef nonnull align 8 dereferenceable(32) %14, ptr %17, i64 %19, ptr noundef nonnull align 8 dereferenceable(16) %15)
  ret void
}

; Function Attrs: mustprogress uwtable
define linkonce_odr dso_local ptr @_ZN5Catch10DecomposerleINSt7__cxx1112basic_stringIcSt11char_traitsIcESaIcEEEEENS_7ExprLhsIRKT_EESB_(ptr noundef nonnull align 1 dereferenceable(1) %0, ptr noundef nonnull align 8 dereferenceable(32) %1) #4 comdat align 2 {
  %3 = alloca %"class.Catch::ExprLhs.2", align 8
  %4 = alloca ptr, align 8
  %5 = alloca ptr, align 8
  store ptr %0, ptr %4, align 8, !tbaa !46
  store ptr %1, ptr %5, align 8, !tbaa !50
  %6 = load ptr, ptr %5, align 8, !tbaa !50
  call void @_ZN5Catch7ExprLhsIRKNSt7__cxx1112basic_stringIcSt11char_traitsIcESaIcEEEEC2ES8_(ptr noundef nonnull align 8 dereferenceable(8) %3, ptr noundef nonnull align 8 dereferenceable(32) %6)
  %7 = getelementptr inbounds nuw %"class.Catch::ExprLhs.2", ptr %3, i32 0, i32 0
  %8 = load ptr, ptr %7, align 8
  ret ptr %8
}

; Function Attrs: mustprogress nounwind uwtable
define linkonce_odr dso_local void @_ZN5Catch14SourceLineInfoC2EPKcm(ptr noundef nonnull align 8 dereferenceable(16) %0, ptr noundef %1, i64 noundef %2) unnamed_addr #6 comdat align 2 {
  %4 = alloca ptr, align 8
  %5 = alloca ptr, align 8
  %6 = alloca i64, align 8
  store ptr %0, ptr %4, align 8, !tbaa !4
  store ptr %1, ptr %5, align 8, !tbaa !9
  store i64 %2, ptr %6, align 8, !tbaa !11
  %7 = load ptr, ptr %4, align 8
  %8 = getelementptr inbounds nuw %"struct.Catch::SourceLineInfo", ptr %7, i32 0, i32 0
  %9 = load ptr, ptr %5, align 8, !tbaa !9
  store ptr %9, ptr %8, align 8, !tbaa !13
  %10 = getelementptr inbounds nuw %"struct.Catch::SourceLineInfo", ptr %7, i32 0, i32 1
  %11 = load i64, ptr %6, align 8, !tbaa !11
  store i64 %11, ptr %10, align 8, !tbaa !15
  ret void
}

; Function Attrs: mustprogress nounwind uwtable
define linkonce_odr dso_local { ptr, i64 } @_Zli9_catch_srPKcm(ptr noundef %0, i64 noundef %1) #6 comdat {
  %3 = alloca %"class.Catch::StringRef", align 8
  %4 = alloca ptr, align 8
  %5 = alloca i64, align 8
  store ptr %0, ptr %4, align 8, !tbaa !9
  store i64 %1, ptr %5, align 8, !tbaa !11
  %6 = load ptr, ptr %4, align 8, !tbaa !9
  %7 = load i64, ptr %5, align 8, !tbaa !11
  call void @_ZN5Catch9StringRefC2EPKcm(ptr noundef nonnull align 8 dereferenceable(16) %3, ptr noundef %6, i64 noundef %7) #3
  %8 = load { ptr, i64 }, ptr %3, align 8
  ret { ptr, i64 } %8
}

; Function Attrs: mustprogress uwtable
define internal void @_ZL14test_preferredN5vcpkg4PathENS_10StringViewE(ptr noundef %0, ptr %1, i64 %2) #4 personality ptr @__gxx_personality_v0 {
  %4 = alloca %"struct.vcpkg::StringView", align 8
  %5 = alloca ptr, align 8
  %6 = alloca %"class.Catch::AssertionHandler", align 8
  %7 = alloca %"class.Catch::StringRef", align 8
  %8 = alloca %"struct.Catch::SourceLineInfo", align 8
  %9 = alloca %"class.Catch::StringRef", align 8
  %10 = alloca %"class.Catch::BinaryExpr.11", align 8
  %11 = alloca %"class.Catch::ExprLhs.2", align 8
  %12 = alloca %"struct.Catch::Decomposer", align 1
  %13 = alloca ptr, align 8
  %14 = alloca i32, align 4
  %15 = getelementptr inbounds nuw { ptr, i64 }, ptr %4, i32 0, i32 0
  store ptr %1, ptr %15, align 8
  %16 = getelementptr inbounds nuw { ptr, i64 }, ptr %4, i32 0, i32 1
  store i64 %2, ptr %16, align 8
  store ptr %0, ptr %5, align 8, !tbaa !48
  call void @_ZN5vcpkg4Path14make_preferredEv(ptr noundef nonnull align 8 dereferenceable(32) %0)
  br label %17

17:                                               ; preds = %3
  call void @llvm.lifetime.start.p0(i64 72, ptr %6) #3
  call void @llvm.lifetime.start.p0(i64 16, ptr %7) #3
  %18 = call { ptr, i64 } @_Zli9_catch_srPKcm(ptr noundef @.str.52, i64 noundef 5) #3
  %19 = getelementptr inbounds nuw { ptr, i64 }, ptr %7, i32 0, i32 0
  %20 = extractvalue { ptr, i64 } %18, 0
  store ptr %20, ptr %19, align 8
  %21 = getelementptr inbounds nuw { ptr, i64 }, ptr %7, i32 0, i32 1
  %22 = extractvalue { ptr, i64 } %18, 1
  store i64 %22, ptr %21, align 8
  call void @llvm.lifetime.start.p0(i64 16, ptr %8) #3
  call void @_ZN5Catch14SourceLineInfoC2EPKcm(ptr noundef nonnull align 8 dereferenceable(16) %8, ptr noundef @.str, i64 noundef 352) #3
  call void @_ZN5Catch9StringRefC1EPKc(ptr noundef nonnull align 8 dereferenceable(16) %9, ptr noundef @.str.119) #3
  %23 = getelementptr inbounds nuw { ptr, i64 }, ptr %9, i32 0, i32 0
  %24 = load ptr, ptr %23, align 8
  %25 = getelementptr inbounds nuw { ptr, i64 }, ptr %9, i32 0, i32 1
  %26 = load i64, ptr %25, align 8
  call void @_ZN5Catch16AssertionHandlerC1ERKNS_9StringRefERKNS_14SourceLineInfoES1_NS_17ResultDisposition5FlagsE(ptr noundef nonnull align 8 dereferenceable(72) %6, ptr noundef nonnull align 8 dereferenceable(16) %7, ptr noundef nonnull align 8 dereferenceable(16) %8, ptr %24, i64 %26, i32 noundef 2)
  call void @llvm.lifetime.end.p0(i64 16, ptr %8) #3
  call void @llvm.lifetime.end.p0(i64 16, ptr %7) #3
  call void @llvm.lifetime.start.p0(i64 48, ptr %10) #3
  call void @llvm.lifetime.start.p0(i64 8, ptr %11) #3
  call void @llvm.lifetime.start.p0(i64 1, ptr %12) #3
  %27 = call noundef nonnull align 8 dereferenceable(32) ptr @_ZNKR5vcpkg4Path6nativeB5cxx11Ev(ptr noundef nonnull align 8 dereferenceable(32) %0) #3
  %28 = invoke ptr @_ZN5Catch10DecomposerleINSt7__cxx1112basic_stringIcSt11char_traitsIcESaIcEEEEENS_7ExprLhsIRKT_EESB_(ptr noundef nonnull align 1 dereferenceable(1) %12, ptr noundef nonnull align 8 dereferenceable(32) %27)
          to label %29 unwind label %33

29:                                               ; preds = %17
  %30 = getelementptr inbounds nuw %"class.Catch::ExprLhs.2", ptr %11, i32 0, i32 0
  store ptr %28, ptr %30, align 8
  invoke void @_ZN5Catch7ExprLhsIRKNSt7__cxx1112basic_stringIcSt11char_traitsIcESaIcEEEEeqIN5vcpkg10StringViewEEEKNS_10BinaryExprIS8_RKT_EESG_(ptr dead_on_unwind writable sret(%"class.Catch::BinaryExpr.11") align 8 %10, ptr noundef nonnull align 8 dereferenceable(8) %11, ptr noundef nonnull align 8 dereferenceable(16) %4)
          to label %31 unwind label %33

31:                                               ; preds = %29
  invoke void @_ZN5Catch16AssertionHandler10handleExprERKNS_20ITransientExpressionE(ptr noundef nonnull align 8 dereferenceable(72) %6, ptr noundef nonnull align 8 dereferenceable(10) %10)
          to label %32 unwind label %37

32:                                               ; preds = %31
  call void @_ZN5Catch20ITransientExpressionD2Ev(ptr noundef nonnull align 8 dereferenceable(48) %10) #3
  call void @llvm.lifetime.end.p0(i64 1, ptr %12) #3
  call void @llvm.lifetime.end.p0(i64 8, ptr %11) #3
  call void @llvm.lifetime.end.p0(i64 48, ptr %10) #3
  br label %47

33:                                               ; preds = %29, %17
  %34 = landingpad { ptr, i32 }
          catch ptr null
  %35 = extractvalue { ptr, i32 } %34, 0
  store ptr %35, ptr %13, align 8
  %36 = extractvalue { ptr, i32 } %34, 1
  store i32 %36, ptr %14, align 4
  br label %41

37:                                               ; preds = %31
  %38 = landingpad { ptr, i32 }
          catch ptr null
  %39 = extractvalue { ptr, i32 } %38, 0
  store ptr %39, ptr %13, align 8
  %40 = extractvalue { ptr, i32 } %38, 1
  store i32 %40, ptr %14, align 4
  call void @_ZN5Catch20ITransientExpressionD2Ev(ptr noundef nonnull align 8 dereferenceable(48) %10) #3
  br label %41

41:                                               ; preds = %37, %33
  call void @llvm.lifetime.end.p0(i64 1, ptr %12) #3
  call void @llvm.lifetime.end.p0(i64 8, ptr %11) #3
  call void @llvm.lifetime.end.p0(i64 48, ptr %10) #3
  br label %42

42:                                               ; preds = %41
  %43 = load ptr, ptr %13, align 8
  %44 = call ptr @__cxa_begin_catch(ptr %43) #3
  invoke void @_ZN5Catch16AssertionHandler33handleUnexpectedInflightExceptionEv(ptr noundef nonnull align 8 dereferenceable(72) %6)
          to label %45 unwind label %50

45:                                               ; preds = %42
  invoke void @__cxa_end_catch()
          to label %46 unwind label %54

46:                                               ; preds = %45
  br label %47

47:                                               ; preds = %46, %32
  invoke void @_ZN5Catch16AssertionHandler8completeEv(ptr noundef nonnull align 8 dereferenceable(72) %6)
          to label %48 unwind label %54

48:                                               ; preds = %47
  call void @_ZN5Catch16AssertionHandlerD2Ev(ptr noundef nonnull align 8 dereferenceable(72) %6) #3
  call void @llvm.lifetime.end.p0(i64 72, ptr %6) #3
  br label %49

49:                                               ; preds = %48
  ret void

50:                                               ; preds = %42
  %51 = landingpad { ptr, i32 }
          cleanup
  %52 = extractvalue { ptr, i32 } %51, 0
  store ptr %52, ptr %13, align 8
  %53 = extractvalue { ptr, i32 } %51, 1
  store i32 %53, ptr %14, align 4
  invoke void @__cxa_end_catch()
          to label %58 unwind label %65

54:                                               ; preds = %47, %45
  %55 = landingpad { ptr, i32 }
          cleanup
  %56 = extractvalue { ptr, i32 } %55, 0
  store ptr %56, ptr %13, align 8
  %57 = extractvalue { ptr, i32 } %55, 1
  store i32 %57, ptr %14, align 4
  br label %59

58:                                               ; preds = %50
  br label %59

59:                                               ; preds = %58, %54
  call void @_ZN5Catch16AssertionHandlerD2Ev(ptr noundef nonnull align 8 dereferenceable(72) %6) #3
  call void @llvm.lifetime.end.p0(i64 72, ptr %6) #3
  br label %60

60:                                               ; preds = %59
  %61 = load ptr, ptr %13, align 8
  %62 = load i32, ptr %14, align 4
  %63 = insertvalue { ptr, i32 } poison, ptr %61, 0
  %64 = insertvalue { ptr, i32 } %63, i32 %62, 1
  resume { ptr, i32 } %64

65:                                               ; preds = %50
  %66 = landingpad { ptr, i32 }
          catch ptr null
  %67 = extractvalue { ptr, i32 } %66, 0
  call void @__clang_call_terminate(ptr %67) #20
  unreachable
}