; Function Attrs: mustprogress uwtable
define internal fastcc void @_ZL14test_preferredN5vcpkg4PathENS_10StringViewE(ptr noundef nonnull %0, ptr %1, i64 %2) unnamed_addr #3 personality ptr @__gxx_personality_v0 {
  %4 = alloca %"struct.vcpkg::StringView", align 8
  %5 = alloca %"class.Catch::StringRef", align 8
  %6 = alloca %"struct.vcpkg::StringView", align 8
  %7 = alloca %"class.Catch::AssertionHandler", align 8
  %8 = alloca %"class.Catch::StringRef", align 8
  %9 = alloca %"struct.Catch::SourceLineInfo", align 8
  %10 = alloca %"class.Catch::StringRef", align 8
  %11 = alloca %"class.Catch::BinaryExpr.11", align 8
  store ptr %1, ptr %6, align 8
  %12 = getelementptr inbounds nuw i8, ptr %6, i64 8
  store i64 %2, ptr %12, align 8
  tail call void @_ZN5vcpkg4Path14make_preferredEv(ptr noundef nonnull align 8 dereferenceable(32) %0)
  call void @llvm.lifetime.start.p0(i64 72, ptr nonnull %7) #24
  call void @llvm.lifetime.start.p0(i64 16, ptr nonnull %8) #24
  store ptr @.str.52, ptr %8, align 8
  %13 = getelementptr inbounds nuw i8, ptr %8, i64 8
  store i64 5, ptr %13, align 8
  call void @llvm.lifetime.start.p0(i64 16, ptr nonnull %9) #24
  store ptr @.str, ptr %9, align 8, !tbaa !4
  %14 = getelementptr inbounds nuw i8, ptr %9, i64 8
  store i64 352, ptr %14, align 8, !tbaa !11
  call void @_ZN5Catch9StringRefC1EPKc(ptr noundef nonnull align 8 dereferenceable(16) %10, ptr noundef nonnull @.str.119) #24
  %15 = load ptr, ptr %10, align 8
  %16 = getelementptr inbounds nuw i8, ptr %10, i64 8
  %17 = load i64, ptr %16, align 8
  call void @_ZN5Catch16AssertionHandlerC1ERKNS_9StringRefERKNS_14SourceLineInfoES1_NS_17ResultDisposition5FlagsE(ptr noundef nonnull align 8 dereferenceable(72) %7, ptr noundef nonnull align 8 dereferenceable(16) %8, ptr noundef nonnull align 8 dereferenceable(16) %9, ptr %15, i64 %17, i32 noundef 2)
  call void @llvm.lifetime.end.p0(i64 16, ptr nonnull %9) #24
  call void @llvm.lifetime.end.p0(i64 16, ptr nonnull %8) #24
  call void @llvm.lifetime.start.p0(i64 48, ptr nonnull %11) #24
  %18 = call noundef nonnull align 8 dereferenceable(32) ptr @_ZNKR5vcpkg4Path6nativeB5cxx11Ev(ptr noundef nonnull align 8 dereferenceable(32) %0) #24
  call void @llvm.experimental.noalias.scope.decl(metadata !585)
  call void @llvm.lifetime.start.p0(i64 16, ptr nonnull %5)
  call void @llvm.lifetime.start.p0(i64 16, ptr nonnull %4), !noalias !585
  call void @_ZN5vcpkg10StringViewC1ERKNSt7__cxx1112basic_stringIcSt11char_traitsIcESaIcEEE(ptr noundef nonnull align 8 dereferenceable(16) %4, ptr noundef nonnull align 8 dereferenceable(32) %18) #24, !noalias !585
  %19 = load ptr, ptr %4, align 8, !noalias !585
  %20 = getelementptr inbounds nuw i8, ptr %4, i64 8
  %21 = load i64, ptr %20, align 8, !noalias !585
  %22 = call noundef zeroext i1 @_ZN5vcpkgeqENS_10StringViewES0_(ptr %19, i64 %21, ptr %1, i64 %2) #24, !noalias !585
  call void @llvm.lifetime.end.p0(i64 16, ptr nonnull %4), !noalias !585
  call void @_ZN5Catch9StringRefC1EPKc(ptr noundef nonnull align 8 dereferenceable(16) %5, ptr noundef nonnull @.str.66) #24, !noalias !585
  %23 = load ptr, ptr %5, align 8, !noalias !585
  %24 = getelementptr inbounds nuw i8, ptr %5, i64 8
  %25 = load i64, ptr %24, align 8, !noalias !585
  %26 = zext i1 %22 to i8
  %27 = getelementptr inbounds nuw i8, ptr %11, i64 8
  store i8 1, ptr %27, align 8, !tbaa !16, !alias.scope !585
  %28 = getelementptr inbounds nuw i8, ptr %11, i64 9
  store i8 %26, ptr %28, align 1, !tbaa !22, !alias.scope !585
  store ptr getelementptr inbounds nuw inrange(-16, 24) (i8, ptr @_ZTVN5Catch10BinaryExprIRKNSt7__cxx1112basic_stringIcSt11char_traitsIcESaIcEEERKN5vcpkg10StringViewEEE, i64 16), ptr %11, align 8, !tbaa !23, !alias.scope !585
  %29 = getelementptr inbounds nuw i8, ptr %11, i64 16
  store ptr %18, ptr %29, align 8, !tbaa !49, !alias.scope !585
  %30 = getelementptr inbounds nuw i8, ptr %11, i64 24
  store ptr %23, ptr %30, align 8, !tbaa !44, !alias.scope !585
  %.sroa.2.0..sroa_idx.i3.i = getelementptr inbounds nuw i8, ptr %11, i64 32
  store i64 %25, ptr %.sroa.2.0..sroa_idx.i3.i, align 8, !tbaa !45, !alias.scope !585
  %31 = getelementptr inbounds nuw i8, ptr %11, i64 40
  store ptr %6, ptr %31, align 8, !tbaa !93, !alias.scope !585
  call void @llvm.lifetime.end.p0(i64 16, ptr nonnull %5)
  invoke void @_ZN5Catch16AssertionHandler10handleExprERKNS_20ITransientExpressionE(ptr noundef nonnull align 8 dereferenceable(72) %7, ptr noundef nonnull align 8 dereferenceable(10) %11)
          to label %32 unwind label %33

32:                                               ; preds = %3
  call void @_ZN5Catch20ITransientExpressionD2Ev(ptr noundef nonnull align 8 dereferenceable(48) %11) #24
  call void @llvm.lifetime.end.p0(i64 48, ptr nonnull %11) #24
  br label %37

33:                                               ; preds = %3
  %34 = landingpad { ptr, i32 }
          catch ptr null
  call void @_ZN5Catch20ITransientExpressionD2Ev(ptr noundef nonnull align 8 dereferenceable(48) %11) #24
  %.02 = extractvalue { ptr, i32 } %34, 0
  call void @llvm.lifetime.end.p0(i64 48, ptr nonnull %11) #24
  %35 = call ptr @__cxa_begin_catch(ptr %.02) #24
  invoke void @_ZN5Catch16AssertionHandler33handleUnexpectedInflightExceptionEv(ptr noundef nonnull align 8 dereferenceable(72) %7)
          to label %36 unwind label %51

36:                                               ; preds = %33
  invoke void @__cxa_end_catch()
          to label %37 unwind label %53

37:                                               ; preds = %36, %32
  invoke void @_ZN5Catch16AssertionHandler8completeEv(ptr noundef nonnull align 8 dereferenceable(72) %7)
          to label %38 unwind label %53

38:                                               ; preds = %37
  %39 = getelementptr inbounds nuw i8, ptr %7, i64 58
  %40 = load i8, ptr %39, align 2, !tbaa !29, !range !36, !noundef !37
  %41 = trunc nuw i8 %40 to i1
  br i1 %41, label %_ZN5Catch16AssertionHandlerD2Ev.exit, label %42

42:                                               ; preds = %38
  %43 = getelementptr inbounds nuw i8, ptr %7, i64 64
  %44 = load ptr, ptr %43, align 8, !tbaa !38
  %45 = load ptr, ptr %44, align 8, !tbaa !23
  %46 = getelementptr inbounds nuw i8, ptr %45, i64 112
  %47 = load ptr, ptr %46, align 8
  invoke void %47(ptr noundef nonnull align 8 dereferenceable(8) %44, ptr noundef nonnull align 8 dereferenceable(72) %7)
          to label %_ZN5Catch16AssertionHandlerD2Ev.exit unwind label %48

48:                                               ; preds = %42
  %49 = landingpad { ptr, i32 }
          catch ptr null
  %50 = extractvalue { ptr, i32 } %49, 0
  call void @__clang_call_terminate(ptr %50) #26
  unreachable

_ZN5Catch16AssertionHandlerD2Ev.exit:             ; preds = %38, %42
  call void @llvm.lifetime.end.p0(i64 72, ptr nonnull %7) #24
  ret void

51:                                               ; preds = %33
  %52 = landingpad { ptr, i32 }
          cleanup
  invoke void @__cxa_end_catch()
          to label %55 unwind label %56

53:                                               ; preds = %37, %36
  %54 = landingpad { ptr, i32 }
          cleanup
  br label %55

55:                                               ; preds = %51, %53
  %.pn3 = phi { ptr, i32 } [ %54, %53 ], [ %52, %51 ]
  call void @_ZN5Catch16AssertionHandlerD2Ev(ptr noundef nonnull align 8 dereferenceable(72) %7) #24
  call void @llvm.lifetime.end.p0(i64 72, ptr nonnull %7) #24
  resume { ptr, i32 } %.pn3

56:                                               ; preds = %51
  %57 = landingpad { ptr, i32 }
          catch ptr null
  %58 = extractvalue { ptr, i32 } %57, 0
  call void @__clang_call_terminate(ptr %58) #26
  unreachable
}